target datalayout = "e-m:e-p270:32:32-p271:32:32-p272:64:64-i64:64-i128:128-f80:128-n8:16:32:64-S128"
target triple = "x86_64-pc-linux-gnu"

%struct.stbtt_pack_context = type { ptr, ptr, i32, i32, i32, i32, i32, i32, ptr, ptr }

; Function Attrs: mustprogress nounwind uwtable
define dso_local void @stbtt_PackSetOversampling(ptr noundef %0, i32 noundef %1, i32 noundef %2) #1 {
  %4 = alloca ptr, align 8
  %5 = alloca i32, align 4
  %6 = alloca i32, align 4
  store ptr %0, ptr %4, align 8
  store i32 %1, ptr %5, align 4
  store i32 %2, ptr %6, align 4
  %7 = load i32, ptr %5, align 4
  %8 = icmp ule i32 %7, 8
  br i1 %8, label %9, label %13

9:                                                ; preds = %3
  %10 = load i32, ptr %5, align 4
  %11 = load ptr, ptr %4, align 8
  %12 = getelementptr inbounds %struct.stbtt_pack_context, ptr %11, i32 0, i32 6
  store i32 %10, ptr %12, align 8
  br label %13

13:                                               ; preds = %9, %3
  %14 = load i32, ptr %6, align 4
  %15 = icmp ule i32 %14, 8
  br i1 %15, label %16, label %20

16:                                               ; preds = %13
  %17 = load i32, ptr %6, align 4
  %18 = load ptr, ptr %4, align 8
  %19 = getelementptr inbounds %struct.stbtt_pack_context, ptr %18, i32 0, i32 7
  store i32 %17, ptr %19, align 4
  br label %20

20:                                               ; preds = %16, %13
  ret void
}